; Function Attrs: nounwind uwtable
define noalias noundef ptr @Abc_FrameReadMiniLutSwitchingPo(ptr noundef readonly captures(none) %0) local_unnamed_addr #2 {
  %2 = getelementptr inbounds nuw i8, ptr %0, i64 576
  %3 = load ptr, ptr %2, align 8, !tbaa !52
  %4 = icmp eq ptr %3, null
  br i1 %4, label %5, label %6

5:                                                ; preds = %1
  %puts = tail call i32 @puts(ptr nonnull dereferenceable(1) @str.13)
  br label %32

6:                                                ; preds = %1
  %7 = tail call ptr @Gia_ManComputeSwitchProbs(ptr noundef nonnull %3, i32 noundef 48, i32 noundef 16, i32 noundef 0) #25
  %8 = load ptr, ptr %2, align 8, !tbaa !52
  %9 = getelementptr i8, ptr %8, i64 72
  %.val19 = load ptr, ptr %9, align 8, !tbaa !42
  %10 = getelementptr i8, ptr %.val19, i64 4
  %.val19.val = load i32, ptr %10, align 4, !tbaa !34
  %11 = sext i32 %.val19.val to i64
  %12 = tail call noalias ptr @calloc(i64 noundef %11, i64 noundef 4) #28
  %13 = icmp sgt i32 %.val19.val, 0
  br i1 %13, label %.lr.ph, label %.critedge

.lr.ph:                                           ; preds = %6
  %14 = getelementptr i8, ptr %8, i64 32
  %.val17 = load ptr, ptr %14, align 8, !tbaa !41
  %15 = getelementptr i8, ptr %.val19, i64 8
  %.val18.val = load ptr, ptr %15, align 8, !tbaa !11
  %16 = getelementptr i8, ptr %7, i64 8
  %.val21 = load ptr, ptr %16, align 8, !tbaa !120
  %wide.trip.count = zext nneg i32 %.val19.val to i64
  br label %17

17:                                               ; preds = %.lr.ph, %17
  %indvars.iv = phi i64 [ 0, %.lr.ph ], [ %indvars.iv.next, %17 ]
  %18 = getelementptr inbounds nuw i32, ptr %.val18.val, i64 %indvars.iv
  %19 = load i32, ptr %18, align 4, !tbaa !10
  %20 = sext i32 %19 to i64
  %21 = getelementptr inbounds %struct.Gia_Obj_t_, ptr %.val17, i64 %20
  %.val3.i = load i64, ptr %21, align 4
  %22 = trunc i64 %.val3.i to i32
  %23 = and i32 %22, 536870911
  %24 = sub nsw i32 %19, %23
  %25 = sext i32 %24 to i64
  %26 = getelementptr inbounds float, ptr %.val21, i64 %25
  %27 = load float, ptr %26, align 4, !tbaa !123
  %28 = fmul float %27, 1.000000e+04
  %29 = fptosi float %28 to i32
  %30 = getelementptr inbounds nuw i32, ptr %12, i64 %indvars.iv
  store i32 %29, ptr %30, align 4, !tbaa !10
  %indvars.iv.next = add nuw nsw i64 %indvars.iv, 1
  %exitcond.not = icmp eq i64 %indvars.iv.next, %wide.trip.count
  br i1 %exitcond.not, label %.critedge.thread, label %17, !llvm.loop !126

.critedge:                                        ; preds = %6
  %.phi.trans.insert = getelementptr inbounds nuw i8, ptr %7, i64 8
  %.pre = load ptr, ptr %.phi.trans.insert, align 8, !tbaa !11
  %.not.i = icmp eq ptr %.pre, null
  br i1 %.not.i, label %Vec_IntFree.exit, label %.critedge.thread

.critedge.thread:                                 ; preds = %17, %.critedge
  %31 = phi ptr [ %.pre, %.critedge ], [ %.val21, %17 ]
  tail call void @free(ptr noundef nonnull %31) #25
  br label %Vec_IntFree.exit

Vec_IntFree.exit:                                 ; preds = %.critedge, %.critedge.thread
  tail call void @free(ptr noundef nonnull %7) #25
  br label %32

32:                                               ; preds = %Vec_IntFree.exit, %5
  %.0 = phi ptr [ null, %5 ], [ %12, %Vec_IntFree.exit ]
  ret ptr %.0
}